target datalayout = "e-m:e-p270:32:32-p271:32:32-p272:64:64-i64:64-i128:128-f80:128-n8:16:32:64-S128"
target triple = "x86_64-pc-linux-gnu"

%struct.AVRational = type { i32, i32 }
%struct.AVChannelLayout = type { i32, i32, %union.anon, ptr }
%union.anon = type { i64 }
%struct.AVCodecContext = type { ptr, i32, i32, ptr, i32, i32, ptr, ptr, ptr, i64, i32, i32, ptr, i32, %struct.AVRational, %struct.AVRational, %struct.AVRational, i32, i32, i32, i32, i32, %struct.AVRational, i32, i32, i32, i32, i32, i32, i32, i32, i32, i32, i32, ptr, ptr, i32, float, float, float, float, float, float, float, float, float, i32, i32, i32, i32, i32, i32, i32, i32, i32, i32, i32, i32, ptr, ptr, ptr, i32, i32, i32, i32, i32, i32, i32, i32, i32, i32, %struct.AVChannelLayout, i32, i32, i32, i32, i32, i32, i32, i32, ptr, i32, i32, i32, float, float, i32, i32, i32, i32, i32, ptr, i64, i64, float, float, i32, i32, ptr, ptr, i32, i32, i32, i32, i32, ptr, ptr, ptr, ptr, i32, i32, [8 x i64], i32, i32, i32, i32, i32, i32, i32, ptr, ptr, i32, i32, i32, i32, i32, i32, i32, i32, i32, i32, ptr, ptr, i32, i32, ptr, ptr, ptr, ptr, i32, i32, i64, i32, i32, i64, ptr, i64, ptr, i32, ptr, i32 }
%struct.AVCodec = type { ptr, ptr, i32, i32, i32, i8, ptr, ptr, ptr, ptr, ptr, ptr, ptr, ptr }
%struct.AVCodecInternal = type { i32, i32, i32, ptr, ptr, ptr, ptr, ptr, ptr, ptr, i32, ptr, ptr, ptr, i32, i32, ptr, i32, ptr, ptr, i32, i32 }
%struct.FFCodec = type { %struct.AVCodec, i32, i32, ptr, ptr, ptr, ptr, %union.anon.0, ptr, ptr, ptr, ptr, ptr, ptr }
%union.anon.0 = type { ptr }
%struct.AVPacketSideData = type { ptr, i64, i32 }

; Function Attrs: inlinehint nounwind uwtable
define internal void @av_refstruct_pool_uninit(ptr noundef %0) #4 {
  %2 = alloca ptr, align 8
  store ptr %0, ptr %2, align 8, !tbaa !123
  %3 = load ptr, ptr %2, align 8, !tbaa !123
  call void @av_refstruct_unref(ptr noundef %3)
  ret void
}

; Function Attrs: alwaysinline nounwind uwtable
define internal ptr @ffcodec(ptr noundef %0) #3 {
  %2 = alloca ptr, align 8
  store ptr %0, ptr %2, align 8, !tbaa !19
  %3 = load ptr, ptr %2, align 8, !tbaa !19
  ret ptr %3
}

; Function Attrs: nounwind uwtable
define i32 @avcodec_is_open(ptr noundef %0) #0 {
  %2 = alloca ptr, align 8
  store ptr %0, ptr %2, align 8, !tbaa !4
  %3 = load ptr, ptr %2, align 8, !tbaa !4
  %4 = getelementptr inbounds nuw %struct.AVCodecContext, ptr %3, i32 0, i32 7
  %5 = load ptr, ptr %4, align 8, !tbaa !60
  %6 = icmp ne ptr %5, null
  %7 = xor i1 %6, true
  %8 = xor i1 %7, true
  %9 = zext i1 %8 to i32
  ret i32 %9
}

; Function Attrs: cold nounwind optsize uwtable
define void @ff_codec_close(ptr noundef %0) #7 {
  %2 = alloca ptr, align 8
  %3 = alloca i32, align 4
  %4 = alloca ptr, align 8
  store ptr %0, ptr %2, align 8, !tbaa !4
  call void @llvm.lifetime.start.p0(i64 4, ptr %3) #13
  %5 = load ptr, ptr %2, align 8, !tbaa !4
  %6 = call i32 @avcodec_is_open(ptr noundef %5)
  %7 = icmp ne i32 %6, 0
  br i1 %7, label %8, label %86

8:                                                ; preds = %1
  call void @llvm.lifetime.start.p0(i64 8, ptr %4) #13
  %9 = load ptr, ptr %2, align 8, !tbaa !4
  %10 = getelementptr inbounds nuw %struct.AVCodecContext, ptr %9, i32 0, i32 7
  %11 = load ptr, ptr %10, align 8, !tbaa !60
  store ptr %11, ptr %4, align 8, !tbaa !59
  %12 = load ptr, ptr %4, align 8, !tbaa !59
  %13 = getelementptr inbounds nuw %struct.AVCodecInternal, ptr %12, i32 0, i32 11
  %14 = load ptr, ptr %13, align 8, !tbaa !96
  %15 = icmp ne ptr %14, null
  br i1 %15, label %16, label %23

16:                                               ; preds = %8
  %17 = load ptr, ptr %2, align 8, !tbaa !4
  %18 = getelementptr inbounds nuw %struct.AVCodecContext, ptr %17, i32 0, i32 116
  %19 = load i32, ptr %18, align 8, !tbaa !102
  %20 = icmp sgt i32 %19, 1
  br i1 %20, label %21, label %23

21:                                               ; preds = %16
  %22 = load ptr, ptr %2, align 8, !tbaa !4
  call void @ff_frame_thread_encoder_free(ptr noundef %22)
  br label %23

23:                                               ; preds = %21, %16, %8
  %24 = load ptr, ptr %4, align 8, !tbaa !59
  %25 = getelementptr inbounds nuw %struct.AVCodecInternal, ptr %24, i32 0, i32 5
  %26 = load ptr, ptr %25, align 8, !tbaa !103
  %27 = icmp ne ptr %26, null
  br i1 %27, label %28, label %30

28:                                               ; preds = %23
  %29 = load ptr, ptr %2, align 8, !tbaa !4
  call void @ff_thread_free(ptr noundef %29)
  br label %30

30:                                               ; preds = %28, %23
  %31 = load ptr, ptr %4, align 8, !tbaa !59
  %32 = getelementptr inbounds nuw %struct.AVCodecInternal, ptr %31, i32 0, i32 14
  %33 = load i32, ptr %32, align 8, !tbaa !99
  %34 = icmp ne i32 %33, 0
  br i1 %34, label %35, label %52

35:                                               ; preds = %30
  %36 = load ptr, ptr %2, align 8, !tbaa !4
  %37 = getelementptr inbounds nuw %struct.AVCodecContext, ptr %36, i32 0, i32 3
  %38 = load ptr, ptr %37, align 8, !tbaa !24
  %39 = call ptr @ffcodec(ptr noundef %38)
  %40 = getelementptr inbounds nuw %struct.FFCodec, ptr %39, i32 0, i32 8
  %41 = load ptr, ptr %40, align 8, !tbaa !104
  %42 = icmp ne ptr %41, null
  br i1 %42, label %43, label %52

43:                                               ; preds = %35
  %44 = load ptr, ptr %2, align 8, !tbaa !4
  %45 = getelementptr inbounds nuw %struct.AVCodecContext, ptr %44, i32 0, i32 3
  %46 = load ptr, ptr %45, align 8, !tbaa !24
  %47 = call ptr @ffcodec(ptr noundef %46)
  %48 = getelementptr inbounds nuw %struct.FFCodec, ptr %47, i32 0, i32 8
  %49 = load ptr, ptr %48, align 8, !tbaa !104
  %50 = load ptr, ptr %2, align 8, !tbaa !4
  %51 = call i32 %49(ptr noundef %50)
  br label %52

52:                                               ; preds = %43, %35, %30
  %53 = load ptr, ptr %4, align 8, !tbaa !59
  %54 = getelementptr inbounds nuw %struct.AVCodecInternal, ptr %53, i32 0, i32 10
  store i32 0, ptr %54, align 8, !tbaa !105
  %55 = load ptr, ptr %4, align 8, !tbaa !59
  %56 = getelementptr inbounds nuw %struct.AVCodecInternal, ptr %55, i32 0, i32 9
  call void @av_freep(ptr noundef %56)
  %57 = load ptr, ptr %4, align 8, !tbaa !59
  %58 = getelementptr inbounds nuw %struct.AVCodecInternal, ptr %57, i32 0, i32 19
  call void @av_frame_free(ptr noundef %58)
  %59 = load ptr, ptr %4, align 8, !tbaa !59
  %60 = getelementptr inbounds nuw %struct.AVCodecInternal, ptr %59, i32 0, i32 18
  call void @av_packet_free(ptr noundef %60)
  %61 = load ptr, ptr %4, align 8, !tbaa !59
  %62 = getelementptr inbounds nuw %struct.AVCodecInternal, ptr %61, i32 0, i32 8
  call void @av_packet_free(ptr noundef %62)
  %63 = load ptr, ptr %4, align 8, !tbaa !59
  %64 = getelementptr inbounds nuw %struct.AVCodecInternal, ptr %63, i32 0, i32 6
  call void @av_packet_free(ptr noundef %64)
  %65 = load ptr, ptr %4, align 8, !tbaa !59
  %66 = getelementptr inbounds nuw %struct.AVCodecInternal, ptr %65, i32 0, i32 12
  call void @av_frame_free(ptr noundef %66)
  %67 = load ptr, ptr %4, align 8, !tbaa !59
  %68 = getelementptr inbounds nuw %struct.AVCodecInternal, ptr %67, i32 0, i32 13
  call void @av_frame_free(ptr noundef %68)
  %69 = load ptr, ptr %4, align 8, !tbaa !59
  %70 = getelementptr inbounds nuw %struct.AVCodecInternal, ptr %69, i32 0, i32 3
  call void @av_refstruct_unref(ptr noundef %70)
  %71 = load ptr, ptr %4, align 8, !tbaa !59
  %72 = getelementptr inbounds nuw %struct.AVCodecInternal, ptr %71, i32 0, i32 4
  call void @av_refstruct_pool_uninit(ptr noundef %72)
  %73 = load ptr, ptr %2, align 8, !tbaa !4
  %74 = getelementptr inbounds nuw %struct.AVCodecContext, ptr %73, i32 0, i32 3
  %75 = load ptr, ptr %74, align 8, !tbaa !24
  %76 = call i32 @av_codec_is_decoder(ptr noundef %75)
  %77 = icmp ne i32 %76, 0
  br i1 %77, label %78, label %80

78:                                               ; preds = %52
  %79 = load ptr, ptr %2, align 8, !tbaa !4
  call void @ff_decode_internal_uninit(ptr noundef %79)
  br label %80

80:                                               ; preds = %78, %52
  %81 = load ptr, ptr %2, align 8, !tbaa !4
  call void @ff_hwaccel_uninit(ptr noundef %81)
  %82 = load ptr, ptr %4, align 8, !tbaa !59
  %83 = getelementptr inbounds nuw %struct.AVCodecInternal, ptr %82, i32 0, i32 7
  call void @av_bsf_free(ptr noundef %83)
  %84 = load ptr, ptr %2, align 8, !tbaa !4
  %85 = getelementptr inbounds nuw %struct.AVCodecContext, ptr %84, i32 0, i32 7
  call void @av_freep(ptr noundef %85)
  call void @llvm.lifetime.end.p0(i64 8, ptr %4) #13
  br label %86

86:                                               ; preds = %80, %1
  store i32 0, ptr %3, align 4, !tbaa !12
  br label %87

87:                                               ; preds = %101, %86
  %88 = load i32, ptr %3, align 4, !tbaa !12
  %89 = load ptr, ptr %2, align 8, !tbaa !4
  %90 = getelementptr inbounds nuw %struct.AVCodecContext, ptr %89, i32 0, i32 139
  %91 = load i32, ptr %90, align 8, !tbaa !106
  %92 = icmp slt i32 %88, %91
  br i1 %92, label %93, label %104

93:                                               ; preds = %87
  %94 = load ptr, ptr %2, align 8, !tbaa !4
  %95 = getelementptr inbounds nuw %struct.AVCodecContext, ptr %94, i32 0, i32 138
  %96 = load ptr, ptr %95, align 8, !tbaa !107
  %97 = load i32, ptr %3, align 4, !tbaa !12
  %98 = sext i32 %97 to i64
  %99 = getelementptr inbounds %struct.AVPacketSideData, ptr %96, i64 %98
  %100 = getelementptr inbounds nuw %struct.AVPacketSideData, ptr %99, i32 0, i32 0
  call void @av_freep(ptr noundef %100)
  br label %101

101:                                              ; preds = %93
  %102 = load i32, ptr %3, align 4, !tbaa !12
  %103 = add nsw i32 %102, 1
  store i32 %103, ptr %3, align 4, !tbaa !12
  br label %87, !llvm.loop !108

104:                                              ; preds = %87
  %105 = load ptr, ptr %2, align 8, !tbaa !4
  %106 = getelementptr inbounds nuw %struct.AVCodecContext, ptr %105, i32 0, i32 138
  call void @av_freep(ptr noundef %106)
  %107 = load ptr, ptr %2, align 8, !tbaa !4
  %108 = getelementptr inbounds nuw %struct.AVCodecContext, ptr %107, i32 0, i32 139
  store i32 0, ptr %108, align 8, !tbaa !106
  %109 = load ptr, ptr %2, align 8, !tbaa !4
  %110 = getelementptr inbounds nuw %struct.AVCodecContext, ptr %109, i32 0, i32 149
  %111 = load ptr, ptr %2, align 8, !tbaa !4
  %112 = getelementptr inbounds nuw %struct.AVCodecContext, ptr %111, i32 0, i32 150
  call void @av_frame_side_data_free(ptr noundef %110, ptr noundef %112)
  %113 = load ptr, ptr %2, align 8, !tbaa !4
  %114 = getelementptr inbounds nuw %struct.AVCodecContext, ptr %113, i32 0, i32 107
  call void @av_buffer_unref(ptr noundef %114)
  %115 = load ptr, ptr %2, align 8, !tbaa !4
  %116 = getelementptr inbounds nuw %struct.AVCodecContext, ptr %115, i32 0, i32 108
  call void @av_buffer_unref(ptr noundef %116)
  %117 = load ptr, ptr %2, align 8, !tbaa !4
  %118 = getelementptr inbounds nuw %struct.AVCodecContext, ptr %117, i32 0, i32 6
  %119 = load ptr, ptr %118, align 8, !tbaa !73
  %120 = icmp ne ptr %119, null
  br i1 %120, label %121, label %137

121:                                              ; preds = %104
  %122 = load ptr, ptr %2, align 8, !tbaa !4
  %123 = getelementptr inbounds nuw %struct.AVCodecContext, ptr %122, i32 0, i32 3
  %124 = load ptr, ptr %123, align 8, !tbaa !24
  %125 = icmp ne ptr %124, null
  br i1 %125, label %126, label %137

126:                                              ; preds = %121
  %127 = load ptr, ptr %2, align 8, !tbaa !4
  %128 = getelementptr inbounds nuw %struct.AVCodecContext, ptr %127, i32 0, i32 3
  %129 = load ptr, ptr %128, align 8, !tbaa !24
  %130 = getelementptr inbounds nuw %struct.AVCodec, ptr %129, i32 0, i32 10
  %131 = load ptr, ptr %130, align 8, !tbaa !74
  %132 = icmp ne ptr %131, null
  br i1 %132, label %133, label %137

133:                                              ; preds = %126
  %134 = load ptr, ptr %2, align 8, !tbaa !4
  %135 = getelementptr inbounds nuw %struct.AVCodecContext, ptr %134, i32 0, i32 6
  %136 = load ptr, ptr %135, align 8, !tbaa !73
  call void @av_opt_free(ptr noundef %136)
  br label %137

137:                                              ; preds = %133, %126, %121, %104
  %138 = load ptr, ptr %2, align 8, !tbaa !4
  call void @av_opt_free(ptr noundef %138)
  %139 = load ptr, ptr %2, align 8, !tbaa !4
  %140 = getelementptr inbounds nuw %struct.AVCodecContext, ptr %139, i32 0, i32 6
  call void @av_freep(ptr noundef %140)
  %141 = load ptr, ptr %2, align 8, !tbaa !4
  %142 = getelementptr inbounds nuw %struct.AVCodecContext, ptr %141, i32 0, i32 3
  %143 = load ptr, ptr %142, align 8, !tbaa !24
  %144 = call i32 @av_codec_is_encoder(ptr noundef %143)
  %145 = icmp ne i32 %144, 0
  br i1 %145, label %146, label %151

146:                                              ; preds = %137
  %147 = load ptr, ptr %2, align 8, !tbaa !4
  %148 = getelementptr inbounds nuw %struct.AVCodecContext, ptr %147, i32 0, i32 12
  call void @av_freep(ptr noundef %148)
  %149 = load ptr, ptr %2, align 8, !tbaa !4
  %150 = getelementptr inbounds nuw %struct.AVCodecContext, ptr %149, i32 0, i32 13
  store i32 0, ptr %150, align 8, !tbaa !50
  br label %161

151:                                              ; preds = %137
  %152 = load ptr, ptr %2, align 8, !tbaa !4
  %153 = getelementptr inbounds nuw %struct.AVCodecContext, ptr %152, i32 0, i32 3
  %154 = load ptr, ptr %153, align 8, !tbaa !24
  %155 = call i32 @av_codec_is_decoder(ptr noundef %154)
  %156 = icmp ne i32 %155, 0
  br i1 %156, label %157, label %160

157:                                              ; preds = %151
  %158 = load ptr, ptr %2, align 8, !tbaa !4
  %159 = getelementptr inbounds nuw %struct.AVCodecContext, ptr %158, i32 0, i32 135
  call void @av_freep(ptr noundef %159)
  br label %160

160:                                              ; preds = %157, %151
  br label %161

161:                                              ; preds = %160, %146
  %162 = load ptr, ptr %2, align 8, !tbaa !4
  %163 = getelementptr inbounds nuw %struct.AVCodecContext, ptr %162, i32 0, i32 3
  store ptr null, ptr %163, align 8, !tbaa !24
  %164 = load ptr, ptr %2, align 8, !tbaa !4
  %165 = getelementptr inbounds nuw %struct.AVCodecContext, ptr %164, i32 0, i32 118
  store i32 0, ptr %165, align 8, !tbaa !97
  call void @llvm.lifetime.end.p0(i64 4, ptr %3) #13
  ret void
}