; Function Attrs: cold nounwind optsize uwtable
define void @ff_codec_close(ptr noundef %0) local_unnamed_addr #5 {
  %2 = getelementptr inbounds nuw i8, ptr %0, i64 40
  %3 = load ptr, ptr %2, align 8, !tbaa !11
  %.not61 = icmp eq ptr %3, null
  br i1 %.not61, label %43, label %4

4:                                                ; preds = %1
  %5 = getelementptr inbounds nuw i8, ptr %3, i64 80
  %6 = load ptr, ptr %5, align 8, !tbaa !79
  %.not51 = icmp eq ptr %6, null
  br i1 %.not51, label %12, label %7

7:                                                ; preds = %4
  %8 = getelementptr inbounds nuw i8, ptr %0, i64 656
  %9 = load i32, ptr %8, align 8, !tbaa !85
  %10 = icmp sgt i32 %9, 1
  br i1 %10, label %11, label %12

11:                                               ; preds = %7
  tail call void @ff_frame_thread_encoder_free(ptr noundef nonnull %0) #12
  br label %12

12:                                               ; preds = %11, %7, %4
  %13 = getelementptr inbounds nuw i8, ptr %3, i64 32
  %14 = load ptr, ptr %13, align 8, !tbaa !86
  %.not52 = icmp eq ptr %14, null
  br i1 %.not52, label %16, label %15

15:                                               ; preds = %12
  tail call void @ff_thread_free(ptr noundef nonnull %0) #12
  br label %16

16:                                               ; preds = %15, %12
  %17 = getelementptr inbounds nuw i8, ptr %3, i64 104
  %18 = load i32, ptr %17, align 8, !tbaa !82
  %.not53 = icmp eq i32 %18, 0
  br i1 %.not53, label %26, label %19

19:                                               ; preds = %16
  %20 = getelementptr inbounds nuw i8, ptr %0, i64 16
  %21 = load ptr, ptr %20, align 8, !tbaa !31
  %22 = getelementptr inbounds nuw i8, ptr %21, i64 144
  %23 = load ptr, ptr %22, align 8, !tbaa !87
  %.not54 = icmp eq ptr %23, null
  br i1 %.not54, label %26, label %24

24:                                               ; preds = %19
  %25 = tail call i32 %23(ptr noundef nonnull %0) #12
  br label %26

26:                                               ; preds = %24, %19, %16
  %27 = getelementptr inbounds nuw i8, ptr %3, i64 72
  store i32 0, ptr %27, align 8, !tbaa !88
  %28 = getelementptr inbounds nuw i8, ptr %3, i64 64
  tail call void @av_freep(ptr noundef nonnull %28) #12
  %29 = getelementptr inbounds nuw i8, ptr %3, i64 136
  tail call void @av_frame_free(ptr noundef nonnull %29) #12
  %30 = getelementptr inbounds nuw i8, ptr %3, i64 128
  tail call void @av_packet_free(ptr noundef nonnull %30) #12
  %31 = getelementptr inbounds nuw i8, ptr %3, i64 56
  tail call void @av_packet_free(ptr noundef nonnull %31) #12
  %32 = getelementptr inbounds nuw i8, ptr %3, i64 40
  tail call void @av_packet_free(ptr noundef nonnull %32) #12
  %33 = getelementptr inbounds nuw i8, ptr %3, i64 88
  tail call void @av_frame_free(ptr noundef nonnull %33) #12
  %34 = getelementptr inbounds nuw i8, ptr %3, i64 96
  tail call void @av_frame_free(ptr noundef nonnull %34) #12
  %35 = getelementptr inbounds nuw i8, ptr %3, i64 16
  tail call void @av_refstruct_unref(ptr noundef nonnull %35) #12
  %36 = getelementptr inbounds nuw i8, ptr %3, i64 24
  tail call void @av_refstruct_unref(ptr noundef nonnull %36) #12
  %37 = getelementptr inbounds nuw i8, ptr %0, i64 16
  %38 = load ptr, ptr %37, align 8, !tbaa !31
  %39 = tail call i32 @av_codec_is_decoder(ptr noundef %38) #12
  %.not55 = icmp eq i32 %39, 0
  br i1 %.not55, label %41, label %40

40:                                               ; preds = %26
  tail call void @ff_decode_internal_uninit(ptr noundef nonnull %0) #12
  br label %41

41:                                               ; preds = %40, %26
  tail call void @ff_hwaccel_uninit(ptr noundef nonnull %0) #12
  %42 = getelementptr inbounds nuw i8, ptr %3, i64 48
  tail call void @av_bsf_free(ptr noundef nonnull %42) #12
  tail call void @av_freep(ptr noundef nonnull %2) #12
  br label %43

43:                                               ; preds = %41, %1
  %44 = getelementptr inbounds nuw i8, ptr %0, i64 784
  %45 = load i32, ptr %44, align 8, !tbaa !89
  %46 = icmp sgt i32 %45, 0
  br i1 %46, label %.lr.ph, label %._crit_edge

.lr.ph:                                           ; preds = %43
  %47 = getelementptr inbounds nuw i8, ptr %0, i64 776
  br label %48

48:                                               ; preds = %.lr.ph, %48
  %indvars.iv = phi i64 [ 0, %.lr.ph ], [ %indvars.iv.next, %48 ]
  %49 = load ptr, ptr %47, align 8, !tbaa !90
  %50 = getelementptr inbounds nuw %struct.AVPacketSideData, ptr %49, i64 %indvars.iv
  tail call void @av_freep(ptr noundef %50) #12
  %indvars.iv.next = add nuw nsw i64 %indvars.iv, 1
  %51 = load i32, ptr %44, align 8, !tbaa !89
  %52 = sext i32 %51 to i64
  %53 = icmp slt i64 %indvars.iv.next, %52
  br i1 %53, label %48, label %._crit_edge, !llvm.loop !91

._crit_edge:                                      ; preds = %48, %43
  %54 = getelementptr inbounds nuw i8, ptr %0, i64 776
  tail call void @av_freep(ptr noundef nonnull %54) #12
  store i32 0, ptr %44, align 8, !tbaa !89
  %55 = getelementptr inbounds nuw i8, ptr %0, i64 848
  %56 = getelementptr inbounds nuw i8, ptr %0, i64 856
  tail call void @av_frame_side_data_free(ptr noundef nonnull %55, ptr noundef nonnull %56) #12
  %57 = getelementptr inbounds nuw i8, ptr %0, i64 552
  tail call void @av_buffer_unref(ptr noundef nonnull %57) #12
  %58 = getelementptr inbounds nuw i8, ptr %0, i64 560
  tail call void @av_buffer_unref(ptr noundef nonnull %58) #12
  %59 = getelementptr inbounds nuw i8, ptr %0, i64 32
  %60 = load ptr, ptr %59, align 8, !tbaa !60
  %.not56 = icmp eq ptr %60, null
  br i1 %.not56, label %68, label %61

61:                                               ; preds = %._crit_edge
  %62 = getelementptr inbounds nuw i8, ptr %0, i64 16
  %63 = load ptr, ptr %62, align 8, !tbaa !31
  %.not57 = icmp eq ptr %63, null
  br i1 %.not57, label %68, label %64

64:                                               ; preds = %61
  %65 = getelementptr inbounds nuw i8, ptr %63, i64 64
  %66 = load ptr, ptr %65, align 8, !tbaa !61
  %.not58 = icmp eq ptr %66, null
  br i1 %.not58, label %68, label %67

67:                                               ; preds = %64
  tail call void @av_opt_free(ptr noundef nonnull %60) #12
  br label %68

68:                                               ; preds = %67, %64, %61, %._crit_edge
  tail call void @av_opt_free(ptr noundef nonnull %0) #12
  tail call void @av_freep(ptr noundef nonnull %59) #12
  %69 = getelementptr inbounds nuw i8, ptr %0, i64 16
  %70 = load ptr, ptr %69, align 8, !tbaa !31
  %71 = tail call i32 @av_codec_is_encoder(ptr noundef %70) #12
  %.not59 = icmp eq i32 %71, 0
  br i1 %.not59, label %75, label %72

72:                                               ; preds = %68
  %73 = getelementptr inbounds nuw i8, ptr %0, i64 72
  tail call void @av_freep(ptr noundef nonnull %73) #12
  %74 = getelementptr inbounds nuw i8, ptr %0, i64 80
  store i32 0, ptr %74, align 8, !tbaa !41
  br label %80

75:                                               ; preds = %68
  %76 = load ptr, ptr %69, align 8, !tbaa !31
  %77 = tail call i32 @av_codec_is_decoder(ptr noundef %76) #12
  %.not60 = icmp eq i32 %77, 0
  br i1 %.not60, label %80, label %78

78:                                               ; preds = %75
  %79 = getelementptr inbounds nuw i8, ptr %0, i64 752
  tail call void @av_freep(ptr noundef nonnull %79) #12
  br label %80

80:                                               ; preds = %75, %78, %72
  store ptr null, ptr %69, align 8, !tbaa !31
  %81 = getelementptr inbounds nuw i8, ptr %0, i64 664
  store i32 0, ptr %81, align 8, !tbaa !81
  ret void
}